(dp0
S'NP_NP_EX'
p1
(dp2
S'there'
p3
F1.0
ssS'SBAR'
p4
(dp5
S'WHNP_WDT S'
p6
F0.3333333333333333
sS'WHNP SQ'
p7
F0.3333333333333333
sS'WHNP_WDT S_VP'
p8
F0.3333333333333333
ssS'NP*'
p9
(dp10
S'DT JJS'
p11
F0.0196078431372549
sS'NP_NN PP'
p12
F0.0196078431372549
sS'CD CD'
p13
F0.0196078431372549
sS'CD CC'
p14
F0.0196078431372549
sS'JJ NNP'
p15
F0.0196078431372549
sS'RB DT'
p16
F0.0196078431372549
sS'CD NNS'
p17
F0.0196078431372549
sS'CD RB'
p18
F0.0196078431372549
sS'JJS NN'
p19
F0.0196078431372549
sS'JJ JJ'
p20
F0.0196078431372549
sS'NP* NN'
p21
F0.0196078431372549
sS'DT JJ'
p22
F0.0196078431372549
sS'NP* SYM'
p23
F0.0196078431372549
sS'NNP NNP'
p24
F0.0196078431372549
sS'NP* VP'
p25
F0.0196078431372549
sS'NP VP'
p26
F0.0196078431372549
sS'QP NNS'
p27
F0.0196078431372549
sS'NP* JJ'
p28
F0.0196078431372549
sS'DT NN'
p29
F0.0196078431372549
sS'NP* PP'
p30
F0.0196078431372549
sS'NP NP_NN'
p31
F0.0196078431372549
sS'JJS JJ'
p32
F0.0196078431372549
sS'NP* NP'
p33
F0.0196078431372549
sS'NN NN'
p34
F0.0196078431372549
sS'NP_NNP CC'
p35
F0.0196078431372549
sS'NP PP'
p36
F0.0196078431372549
sS'NP CC'
p37
F0.0196078431372549
sS'CC NNP'
p38
F0.0196078431372549
sS'DT ADJP'
p39
F0.0196078431372549
sS'NP* X_JJ'
p40
F0.0196078431372549
sS'NN NNP'
p41
F0.0196078431372549
sS'NP_NNS PP'
p42
F0.0196078431372549
sS'NP_NN CC'
p43
F0.0196078431372549
sS'NP* CC'
p44
F0.0196078431372549
sS'DT NNP'
p45
F0.0196078431372549
sS'NP_NNS VP'
p46
F0.0196078431372549
sS'PDT DT'
p47
F0.0196078431372549
sS'NP* CD'
p48
F0.0196078431372549
sS'NP* X_TO'
p49
F0.0196078431372549
sS'CD NN'
p50
F0.0196078431372549
sS'JJ NN'
p51
F0.0196078431372549
sS'NP_NNP PP'
p52
F0.0196078431372549
sS'NP SBAR'
p53
F0.0196078431372549
sS'NP* NNP'
p54
F0.0196078431372549
sS'NP NN'
p55
F0.0196078431372549
sS'DT CD'
p56
F0.0196078431372549
sS'NN CD'
p57
F0.0196078431372549
sS'NNP CC'
p58
F0.0196078431372549
sS'NP NP'
p59
F0.0196078431372549
sS'NNP CD'
p60
F0.0196078431372549
sS'NP* ADVP_RB'
p61
F0.0196078431372549
ssS'ADVP_RB'
p62
(dp63
S'<unk>'
p64
F0.25
sS'last'
p65
F0.0625
sS'here'
p66
F0.125
sS'Only'
p67
F0.125
sS'daily'
p68
F0.25
sS'Now'
p69
F0.125
sS'first'
p70
F0.0625
ssS'SQ*'
p71
(dp72
S'NP VP'
p73
F0.0625
sS'NP SQ*'
p74
F0.0625
sS'NP_NP_EX SQ*'
p75
F0.0625
sS'NP_PRP VP'
p76
F0.0625
sS'PP PP'
p77
F0.0625
sS'NP_NP_EX NP'
p78
F0.0625
sS'NP VP_VB'
p79
F0.0625
sS'MD SQ*'
p80
F0.0625
sS'NP_PRP VP_VB'
p81
F0.0625
sS'NP_DT NP'
p82
F0.0625
sS'VBZ SQ*'
p83
F0.0625
sS'PP SQ*'
p84
F0.0625
sS'NP NP'
p85
F0.0625
sS'NP ADJP_JJ'
p86
F0.0625
sS'NP PP'
p87
F0.0625
sS'NP_NN VP'
p88
F0.0625
ssS'WDT'
p89
(dp90
S'What'
p91
F0.9156626506024096
sS'what'
p92
F0.012048192771084338
sS'Which'
p93
F0.060240963855421686
sS'<unk>'
p94
F0.012048192771084338
ssS'FRAG_NP_NN'
p95
(dp96
S'<unk>'
p97
F1.0
ssS'JJ'
p98
(dp99
S'Last'
p100
F0.030303030303030304
sS'many'
p101
F0.045454545454545456
sS'next'
p102
F0.09090909090909091
sS'other'
p103
F0.030303030303030304
sS'Round'
p104
F0.030303030303030304
sS'First'
p105
F0.030303030303030304
sS'last'
p106
F0.015151515151515152
sS'first'
p107
F0.15151515151515152
sS'round'
p108
F0.22727272727272727
sS'nonstop'
p109
F0.15151515151515152
sS'<unk>'
p110
F0.19696969696969696
ssS'WP'
p111
(dp112
S'What'
p113
F0.75
sS'what'
p114
F0.25
ssS'X_JJ'
p115
(dp116
S'nonstop'
p117
F1.0
ssS'PUNC'
p118
(dp119
S'?'
p120
F0.2622601279317697
sS'.'
p121
F0.7377398720682303
ssS'RB'
p122
(dp123
S'around'
p124
F0.05660377358490566
sS"o'clock"
p125
F0.09433962264150944
sS'a.m'
p126
F0.1509433962264151
sS'as'
p127
F0.018867924528301886
sS'much'
p128
F0.09433962264150944
sS'p.m'
p129
F0.41509433962264153
sS'apart'
p130
F0.07547169811320754
sS'<unk>'
p131
F0.09433962264150944
ssS'NNS'
p132
(dp133
S'codes'
p134
F0.009569377990430622
sS'stopovers'
p135
F0.009569377990430622
sS'dollars'
p136
F0.019138755980861243
sS'airlines'
p137
F0.014354066985645933
sS'stops'
p138
F0.019138755980861243
sS'hours'
p139
F0.019138755980861243
sS'flights'
p140
F0.7464114832535885
sS'ones'
p141
F0.009569377990430622
sS'numbers'
p142
F0.014354066985645933
sS'fares'
p143
F0.07177033492822966
sS'minutes'
p144
F0.023923444976076555
sS'meals'
p145
F0.019138755980861243
sS'<unk>'
p146
F0.023923444976076555
ssS'NNP'
p147
(dp148
S'Jose'
p149
F0.01715686274509804
sS'Thursday'
p150
F0.014705882352941176
sS'United'
p151
F0.014705882352941176
sS'Diego'
p152
F0.0196078431372549
sS'Airlines'
p153
F0.041666666666666664
sS'City'
p154
F0.07107843137254902
sS'Newark'
p155
F0.0024509803921568627
sS'Los'
p156
F0.02696078431372549
sS'Sunday'
p157
F0.004901960784313725
sS'Ontario'
p158
F0.0024509803921568627
sS'Petersburg'
p159
F0.007352941176470588
sS'Saint'
p160
F0.0196078431372549
sS'New'
p161
F0.061274509803921566
sS'International'
p162
F0.004901960784313725
sS'Beach'
p163
F0.007352941176470588
sS'Southwest'
p164
F0.00980392156862745
sS'Paul'
p165
F0.004901960784313725
sS'Francisco'
p166
F0.03676470588235294
sS'Monday'
p167
F0.012254901960784314
sS'Kansas'
p168
F0.03431372549019608
sS'Guardia'
p169
F0.007352941176470588
sS'Vegas'
p170
F0.058823529411764705
sS'York'
p171
F0.051470588235294115
sS'Delta'
p172
F0.0024509803921568627
sS'July'
p173
F0.004901960784313725
sS'Friday'
p174
F0.007352941176470588
sS'Tampa'
p175
F0.0024509803921568627
sS'Las'
p176
F0.058823529411764705
sS'A'
p177
F0.024509803921568627
sS'C'
p178
F0.014705882352941176
sS'D'
p179
F0.012254901960784314
sS'F'
p180
F0.014705882352941176
sS'Louis'
p181
F0.007352941176470588
sS'K'
p182
F0.00980392156862745
sS'J'
p183
F0.00980392156862745
sS'Orlando'
p184
F0.0024509803921568627
sS'Wednesday'
p185
F0.00980392156862745
sS'Lake'
p186
F0.014705882352941176
sS'Angeles'
p187
F0.02696078431372549
sS'P'
p188
F0.0024509803921568627
sS'American'
p189
F0.024509803921568627
sS'U'
p190
F0.00980392156862745
sS'T'
p191
F0.00980392156862745
sS'W'
p192
F0.014705882352941176
sS'Ohio'
p193
F0.004901960784313725
sS'N'
p194
F0.004901960784313725
sS'Salt'
p195
F0.014705882352941176
sS'Westchester'
p196
F0.00980392156862745
sS'Jersey'
p197
F0.00980392156862745
sS'Dulles'
p198
F0.0024509803921568627
sS'Cincinnati'
p199
F0.0024509803921568627
sS'San'
p200
F0.07352941176470588
sS'Tuesday'
p201
F0.0024509803921568627
sS'S'
p202
F0.007352941176470588
sS'Long'
p203
F0.007352941176470588
sS'County'
p204
F0.00980392156862745
sS'La'
p205
F0.007352941176470588
sS'Cleveland'
p206
F0.004901960784313725
sS'Milwaukee'
p207
F0.0024509803921568627
sS'Air'
p208
F0.007352941176470588
sS'Saturday'
p209
F0.0024509803921568627
sS'<unk>'
p210
F0.00980392156862745
ssS'FRAG'
p211
(dp212
S'NP_NNP PP'
p213
F0.07142857142857142
sS'FRAG* ADVP_RB'
p214
F0.07142857142857142
sS'PP PP'
p215
F0.07142857142857142
sS'NP INTJ_UH'
p216
F0.07142857142857142
sS'FRAG* PP'
p217
F0.07142857142857142
sS'X NP_NNP'
p218
F0.07142857142857142
sS'X PP'
p219
F0.07142857142857142
sS'WHNP PP'
p220
F0.07142857142857142
sS'FRAG* NP'
p221
F0.07142857142857142
sS'X NP'
p222
F0.07142857142857142
sS'PP VP'
p223
F0.07142857142857142
sS'FRAG* VP'
p224
F0.07142857142857142
sS'NP NP'
p225
F0.07142857142857142
sS'ADVP_RB NP_NNP'
p226
F0.07142857142857142
ssS'FRAG_WHNP'
p227
(dp228
S'WHNP* PP'
p229
F0.5
sS'WHNP PP'
p230
F0.5
ssS'ADVP_RBS'
p231
(dp232
S'latest'
p233
F1.0
ssS'WRB'
p234
(dp235
S'How'
p236
F1.0
ssS'X'
p237
(dp238
S'WRB IN'
p239
F0.3333333333333333
sS'VBZ NP_DT'
p240
F0.3333333333333333
sS'WP IN'
p241
F0.3333333333333333
ssS'S_VP_VBG'
p242
(dp243
S'arriving'
p244
F1.0
ssS'NP_NNP'
p245
(dp246
S'Friday'
p247
F0.019955654101995565
sS'Thursday'
p248
F0.008869179600886918
sS'Ontario'
p249
F0.013303769401330377
sS'Chicago'
p250
F0.019955654101995565
sS'Philadelphia'
p251
F0.017738359201773836
sS'Denver'
p252
F0.03325942350332594
sS'Newark'
p253
F0.06208425720620843
sS'Sunday'
p254
F0.017738359201773836
sS'Columbus'
p255
F0.022172949002217297
sS'Indianapolis'
p256
F0.024390243902439025
sS'Phoenix'
p257
F0.04212860310421286
sS'Pittsburgh'
p258
F0.026607538802660754
sS'Nashville'
p259
F0.037694013303769404
sS'Oakland'
p260
F0.015521064301552107
sS'Baltimore'
p261
F0.04212860310421286
sS'Delta'
p262
F0.0022172949002217295
sS'Atlanta'
p263
F0.013303769401330377
sS'Memphis'
p264
F0.031042128603104215
sS'Tampa'
p265
F0.031042128603104215
sS'Toronto'
p266
F0.022172949002217297
sS'Charlotte'
p267
F0.019955654101995565
sS'Miami'
p268
F0.03325942350332594
sS'Orlando'
p269
F0.031042128603104215
sS'Wednesday'
p270
F0.024390243902439025
sS'Burbank'
p271
F0.013303769401330377
sS'American'
p272
F0.004434589800443459
sS'Westchester'
p273
F0.0022172949002217295
sS'Detroit'
p274
F0.013303769401330377
sS'July'
p275
F0.0066518847006651885
sS'Montreal'
p276
F0.017738359201773836
sS'Dulles'
p277
F0.0022172949002217295
sS'Houston'
p278
F0.03547671840354767
sS'Dallas'
p279
F0.031042128603104215
sS'Tacoma'
p280
F0.022172949002217297
sS'Cincinnati'
p281
F0.019955654101995565
sS'Monday'
p282
F0.011086474501108648
sS'Boston'
p283
F0.013303769401330377
sS'Tuesday'
p284
F0.008869179600886918
sS'Washington'
p285
F0.017738359201773836
sS'Minneapolis'
p286
F0.022172949002217297
sS'Cleveland'
p287
F0.0598669623059867
sS'Milwaukee'
p288
F0.04212860310421286
sS'Seattle'
p289
F0.013303769401330377
sS'Saturday'
p290
F0.015521064301552107
sS'<unk>'
p291
F0.015521064301552107
ssS'NP_NNS'
p292
(dp293
S'fares'
p294
F0.014492753623188406
sS'Airports'
p295
F0.028985507246376812
sS'Flights'
p296
F0.5942028985507246
sS'stops'
p297
F0.014492753623188406
sS'weekdays'
p298
F0.043478260869565216
sS'flights'
p299
F0.2318840579710145
sS'Wednesdays'
p300
F0.014492753623188406
sS'Fares'
p301
F0.028985507246376812
sS'meals'
p302
F0.014492753623188406
sS'<unk>'
p303
F0.014492753623188406
ssS'X_SBARQ'
p304
(dp305
S'WHNP SQ_VP'
p306
F1.0
ssS'WHADVP_WRB'
p307
(dp308
S'<unk>'
p309
F1.0
ssS'SBARQ*'
p310
(dp311
S'PP WHNP_WHNP'
p312
F1.0
ssS'SYM'
p313
(dp314
g177
F0.16666666666666666
sg188
F0.16666666666666666
sg179
F0.16666666666666666
sS'<unk>'
p315
F0.5
ssS'WHNP_WP'
p316
(dp317
S'What'
p318
F1.0
ssS'NP_NN'
p319
(dp320
S'Flight'
p321
F0.0784313725490196
sS'noon'
p322
F0.11764705882352941
sS'aircraft'
p323
F0.0196078431372549
sS'Price'
p324
F0.13725490196078433
sS'price'
p325
F0.0196078431372549
sS'lunch'
p326
F0.058823529411764705
sS'dinner'
p327
F0.27450980392156865
sS'Airline'
p328
F0.0392156862745098
sS'flight'
p329
F0.058823529411764705
sS'tomorrow'
p330
F0.11764705882352941
sS'today'
p331
F0.0196078431372549
sS'<unk>'
p332
F0.058823529411764705
ssS'PP'
p333
(dp334
S'IN NP_NN'
p335
F0.07142857142857142
sS'IN NP_NNP'
p336
F0.07142857142857142
sS'IN NP_NNS'
p337
F0.07142857142857142
sS'IN NP_DT'
p338
F0.07142857142857142
sS'IN NP_NNPS'
p339
F0.07142857142857142
sS'PP* PP'
p340
F0.07142857142857142
sS'PP* NP'
p341
F0.07142857142857142
sS'IN NP_PRP'
p342
F0.07142857142857142
sS'IN NP'
p343
F0.07142857142857142
sS'IN ADJP_JJ'
p344
F0.07142857142857142
sS'PP* S_VP_VBG'
p345
F0.07142857142857142
sS'TO NP'
p346
F0.07142857142857142
sS'TO NP_NNP'
p347
F0.07142857142857142
sS'TO INTJ_UH'
p348
F0.07142857142857142
ssS'WHNP*'
p349
(dp350
S'WHNP* PP'
p351
F0.3333333333333333
sS'NP PP'
p352
F0.3333333333333333
sS'WHNP PP'
p353
F0.3333333333333333
ssS'FRAG_NP_NNP'
p354
(dp355
S'Tuesday'
p356
F1.0
ssS'X_TO'
p357
(dp358
S'to'
p359
F1.0
ssS'VP_VBN'
p360
(dp361
S'served'
p362
F1.0
ssS'FRAG_ADJP_JJ'
p363
(dp364
S'Nonstop'
p365
F1.0
ssS'VP_VBG'
p366
(dp367
S'<unk>'
p368
F1.0
ssS'WHNP_WHNP'
p369
(dp370
S'WDT NNS'
p371
F0.5
sS'WHADJP NNS'
p372
F0.5
ssg202
(dp373
S'ADVP_RB VP'
p374
F0.1111111111111111
sS'NP VP'
p375
F0.1111111111111111
sS'NP_NN VP_VBN'
p376
F0.1111111111111111
sS'NP_PRP VP'
p377
F0.1111111111111111
sS'NP_NNP VP_VBZ'
p378
F0.1111111111111111
sS'INTJ_UH VP'
p379
F0.1111111111111111
sS'S* VP'
p380
F0.1111111111111111
sS'S* S'
p381
F0.1111111111111111
sS'NP_NN VP'
p382
F0.1111111111111111
ssS'VP_VBZ'
p383
(dp384
S'has'
p385
F1.0
ssS'ADVP'
p386
(dp387
S'RB PP'
p388
F0.3333333333333333
sS'ADVP_RB PP'
p389
F0.3333333333333333
sS'NP RB'
p390
F0.3333333333333333
ssS'MD'
p391
(dp392
S'<unk>'
p393
F0.038461538461538464
sS"'d"
p394
F0.38461538461538464
sS'Can'
p395
F0.07692307692307693
sS'would'
p396
F0.34615384615384615
sS'should'
p397
F0.15384615384615385
ssS'ADJP_JJ'
p398
(dp399
S'last'
p400
F0.3333333333333333
sS'Nonstop'
p401
F0.1111111111111111
sS'nonstop'
p402
F0.2222222222222222
sS'<unk>'
p403
F0.3333333333333333
ssS'SBARQ'
p404
(dp405
S'WHNP SQ'
p406
F0.125
sS'SBARQ* SQ_VP'
p407
F0.125
sS'WHNP_WHNP SQ'
p408
F0.125
sS'WHNP_WP SQ'
p409
F0.125
sS'WHNP_WDT SQ_VP'
p410
F0.125
sS'WHNP_WDT SQ'
p411
F0.125
sS'WHNP SQ_VP'
p412
F0.125
sS'WHADVP_WRB SQ'
p413
F0.125
ssS'S_VP'
p414
(dp415
S'VP* NP'
p416
F0.058823529411764705
sS'VBP NP_NN'
p417
F0.058823529411764705
sS'TO VP'
p418
F0.058823529411764705
sS'VP* VP'
p419
F0.058823529411764705
sS'VBZ ADVP_RB'
p420
F0.058823529411764705
sS'VB NP_PRP'
p421
F0.058823529411764705
sS'VBZ NP_NN'
p422
F0.058823529411764705
sS'VBP NP'
p423
F0.058823529411764705
sS'MD VP'
p424
F0.058823529411764705
sS'VB NP_NNS'
p425
F0.058823529411764705
sS'VP* PP'
p426
F0.058823529411764705
sS'VBP PP'
p427
F0.058823529411764705
sS'VBZ PP'
p428
F0.058823529411764705
sS'VBP ADVP'
p429
F0.058823529411764705
sS'VP* INTJ_UH'
p430
F0.058823529411764705
sS'VBZ NP'
p431
F0.058823529411764705
sS'VB NP'
p432
F0.058823529411764705
ssS'SQ_VP'
p433
(dp434
S'VBP NP_NN'
p435
F0.05555555555555555
sS'VBZ ADVP_RBS'
p436
F0.05555555555555555
sS'VBP ADJP_JJ'
p437
F0.05555555555555555
sS'VBP VP'
p438
F0.05555555555555555
sS'VBZ ADJP_JJ'
p439
F0.05555555555555555
sS'VBP NP_NNP'
p440
F0.05555555555555555
sS'VP* VP'
p441
F0.05555555555555555
sS'VBZ NP_NN'
p442
F0.05555555555555555
sS'VBP PP_IN'
p443
F0.05555555555555555
sS'VBP NP'
p444
F0.05555555555555555
sS'VP* NP'
p445
F0.05555555555555555
sS'VP* PP'
p446
F0.05555555555555555
sS'VBP ADVP_RB'
p447
F0.05555555555555555
sS'VBP NP_NNS'
p448
F0.05555555555555555
sS'VBP PP'
p449
F0.05555555555555555
sS'VBP ADVP_RBS'
p450
F0.05555555555555555
sS'VBZ ADJP_JJR'
p451
F0.05555555555555555
sS'VBZ NP'
p452
F0.05555555555555555
ssS'VBG'
p453
(dp454
S'departing'
p455
F0.08823529411764706
sS'Departing'
p456
F0.058823529411764705
sS'Leaving'
p457
F0.11764705882352941
sS'arriving'
p458
F0.35294117647058826
sS'leaving'
p459
F0.2647058823529412
sS'<unk>'
p460
F0.11764705882352941
ssS'VBD'
p461
(dp462
S'<unk>'
p463
F1.0
ssS'VBN'
p464
(dp465
S'served'
p466
F0.6666666666666666
sS'<unk>'
p467
F0.3333333333333333
ssS'S*'
p468
(dp469
S'PP NP_PRP'
p470
F0.2
sS'NP_PRP ADVP_RB'
p471
F0.2
sS'INTJ_UH NP_PRP'
p472
F0.2
sS'ADVP_RB NP_PRP'
p473
F0.2
sS'S CC'
p474
F0.2
ssS'VBP'
p475
(dp476
S'fly'
p477
F0.017543859649122806
sS'do'
p478
F0.043859649122807015
sS'depart'
p479
F0.06140350877192982
sS'want'
p480
F0.02631578947368421
sS'Do'
p481
F0.03508771929824561
sS'serve'
p482
F0.043859649122807015
sS'make'
p483
F0.017543859649122806
sS'stop'
p484
F0.03508771929824561
sS'leave'
p485
F0.09649122807017543
sS'go'
p486
F0.07894736842105263
sS'are'
p487
F0.23684210526315788
sS'have'
p488
F0.06140350877192982
sS'need'
p489
F0.14035087719298245
sS'arrive'
p490
F0.03508771929824561
sS'<unk>'
p491
F0.07017543859649122
ssS'NP_DT'
p492
(dp493
S'these'
p494
F0.5333333333333333
sS'this'
p495
F0.06666666666666667
sS'any'
p496
F0.06666666666666667
sS'those'
p497
F0.26666666666666666
sS'Any'
p498
F0.06666666666666667
ssS'VBZ'
p499
(dp500
S'arrives'
p501
F0.034482758620689655
sS'is'
p502
F0.5344827586206896
sS'serves'
p503
F0.034482758620689655
sS'Does'
p504
F0.1206896551724138
sS'lives'
p505
F0.034482758620689655
sS'leaves'
p506
F0.06896551724137931
sS'has'
p507
F0.017241379310344827
sS'Is'
p508
F0.1206896551724138
sS'<unk>'
p509
F0.034482758620689655
ssS'FRAG_VP'
p510
(dp511
S'VP* PP'
p512
F0.3333333333333333
sS'VBG PP'
p513
F0.3333333333333333
sS'VBG NP'
p514
F0.3333333333333333
ssS'NN'
p515
(dp516
S'coach'
p517
F0.0071174377224199285
sS'number'
p518
F0.017793594306049824
sS'one'
p519
F0.0071174377224199285
sS'cost'
p520
F0.0071174377224199285
sS'nonstop'
p521
F0.0071174377224199285
sS'transportation'
p522
F0.02491103202846975
sS'trip'
p523
F0.060498220640569395
sS'ground'
p524
F0.017793594306049824
sS'code'
p525
F0.0071174377224199285
sS'Flight'
p526
F0.010676156583629894
sS'flight'
p527
F0.2669039145907473
sS'noon'
p528
F0.0071174377224199285
sS'Return'
p529
F0.0071174377224199285
sS'day'
p530
F0.010676156583629894
sS'tomorrow'
p531
F0.010676156583629894
sS'way'
p532
F0.028469750889679714
sS'type'
p533
F0.0071174377224199285
sS'today'
p534
F0.0035587188612099642
sS'airline'
p535
F0.0071174377224199285
sS'fare'
p536
F0.06761565836298933
sS'evening'
p537
F0.03914590747330961
sS'return'
p538
F0.0071174377224199285
sS'business'
p539
F0.0071174377224199285
sS'leg'
p540
F0.0071174377224199285
sS'price'
p541
F0.03914590747330961
sS'night'
p542
F0.0071174377224199285
sS'stop'
p543
F0.02491103202846975
sS'lunch'
p544
F0.0071174377224199285
sS'aircraft'
p545
F0.0071174377224199285
sS'airfare'
p546
F0.017793594306049824
sS'reservation'
p547
F0.0071174377224199285
sS'class'
p548
F0.0498220640569395
sS'Coach'
p549
F0.010676156583629894
sS'morning'
p550
F0.060498220640569395
sS'dinner'
p551
F0.021352313167259787
sS'afternoon'
p552
F0.028469750889679714
sS'time'
p553
F0.0071174377224199285
sS'Ground'
p554
F0.010676156583629894
sS'<unk>'
p555
F0.05693950177935943
ssS'FRAG_ADJP_JJS'
p556
(dp557
S'Cheapest'
p558
F1.0
ssS'NX'
p559
(dp560
S'NX* NX'
p561
F0.5
sS'NN NN'
p562
F0.5
ssS'NP_CD'
p563
(dp564
S'one'
p565
F1.0
ssS'FRAG_NP'
p566
(dp567
S'NP VP_VBG'
p568
F0.041666666666666664
sS'JJS NNS'
p569
F0.041666666666666664
sS'NP* NP'
p570
F0.041666666666666664
sS'NP_NNS ADJP'
p571
F0.041666666666666664
sS'JJS NN'
p572
F0.041666666666666664
sS'NP* NN'
p573
F0.041666666666666664
sS'NNP NN'
p574
F0.041666666666666664
sS'NP* VP'
p575
F0.041666666666666664
sS'NP_NNS PP'
p576
F0.041666666666666664
sS'NP* PP'
p577
F0.041666666666666664
sS'NP_NN PP'
p578
F0.041666666666666664
sS'CD NNS'
p579
F0.041666666666666664
sS'NN NN'
p580
F0.041666666666666664
sS'NP PP'
p581
F0.041666666666666664
sS'NN NNS'
p582
F0.041666666666666664
sS'DT NNS'
p583
F0.041666666666666664
sS'JJ NNS'
p584
F0.041666666666666664
sS'NP* CD'
p585
F0.041666666666666664
sS'NP* ADJP'
p586
F0.041666666666666664
sS'NP* NNS'
p587
F0.041666666666666664
sS'NP* SBAR'
p588
F0.041666666666666664
sS'NP* NP_NNS'
p589
F0.041666666666666664
sS'NP* NP_NN'
p590
F0.041666666666666664
sS'NP* ADVP_RB'
p591
F0.041666666666666664
ssS'NP'
p592
(dp593
S'NP* SYM'
p594
F0.0196078431372549
sS'CD CD'
p595
F0.0196078431372549
sS'JJ NN'
p596
F0.0196078431372549
sS'CD NNS'
p597
F0.0196078431372549
sS'NP_NNP NP'
p598
F0.0196078431372549
sS'CD RB'
p599
F0.0196078431372549
sS'WDT NNS'
p600
F0.0196078431372549
sS'JJS NN'
p601
F0.0196078431372549
sS'NP* NN'
p602
F0.0196078431372549
sS'DT JJ'
p603
F0.0196078431372549
sS'NP SBAR_S_VP'
p604
F0.0196078431372549
sS'NNP NNS'
p605
F0.0196078431372549
sS'NNP NN'
p606
F0.0196078431372549
sS'NNP NNP'
p607
F0.0196078431372549
sS'NP* VP'
p608
F0.0196078431372549
sS'NP VP'
p609
F0.0196078431372549
sS'NP_DT PP'
p610
F0.0196078431372549
sS'NP ADJP_JJ'
p611
F0.0196078431372549
sS'QP NNS'
p612
F0.0196078431372549
sS'DT NN'
p613
F0.0196078431372549
sS'NP* PP'
p614
F0.0196078431372549
sS'NP_NN PP'
p615
F0.0196078431372549
sS'NNP JJ'
p616
F0.0196078431372549
sS'NP* NP'
p617
F0.0196078431372549
sS'NN NN'
p618
F0.0196078431372549
sS'NP* NP_NN'
p619
F0.0196078431372549
sS'NP PP'
p620
F0.0196078431372549
sS'DT NX'
p621
F0.0196078431372549
sS'NN NNS'
p622
F0.0196078431372549
sS'NP* RB'
p623
F0.0196078431372549
sS'NP_NNS PP'
p624
F0.0196078431372549
sS'NNP POS'
p625
F0.0196078431372549
sS'DT NNS'
p626
F0.0196078431372549
sS'NP_NNS VP'
p627
F0.0196078431372549
sS'JJ NNS'
p628
F0.0196078431372549
sS'JJ NNP'
p629
F0.0196078431372549
sS'NP* CD'
p630
F0.0196078431372549
sS'CD NN'
p631
F0.0196078431372549
sS'QP RB'
p632
F0.0196078431372549
sS'NP* NNS'
p633
F0.0196078431372549
sS'NP* SBAR'
p634
F0.0196078431372549
sS'NP* NNP'
p635
F0.0196078431372549
sS'QP NN'
p636
F0.0196078431372549
sS'NP_NNP NP_NNP'
p637
F0.0196078431372549
sS'NP* NP_NNP'
p638
F0.0196078431372549
sS'NP NNS'
p639
F0.0196078431372549
sS'NP_CD PP'
p640
F0.0196078431372549
sS'NP* QP'
p641
F0.0196078431372549
sS'NP NP'
p642
F0.0196078431372549
sS'NP SBAR'
p643
F0.0196078431372549
sS'NP* ADVP'
p644
F0.0196078431372549
ssS'CC'
p645
(dp646
S'and'
p647
F0.8048780487804879
sS'or'
p648
F0.17073170731707318
sS'<unk>'
p649
F0.024390243902439025
ssS'PDT'
p650
(dp651
S'all'
p652
F1.0
ssS'PRT_RP'
p653
(dp654
S'<unk>'
p655
F1.0
ssS'CD'
p656
(dp657
S'twelve'
p658
F0.03571428571428571
sS'seven'
p659
F0.07857142857142857
sS'hundred'
p660
F0.05714285714285714
sS'thirty'
p661
F0.07857142857142857
sS'ten'
p662
F0.07857142857142857
sS'oh'
p663
F0.014285714285714285
sS'twenty'
p664
F0.014285714285714285
sS'six'
p665
F0.07857142857142857
sS'two'
p666
F0.014285714285714285
sS'forty'
p667
F0.014285714285714285
sS'fifty'
p668
F0.04285714285714286
sS'four'
p669
F0.02142857142857143
sS'eleven'
p670
F0.014285714285714285
sS'five'
p671
F0.12857142857142856
sS'three'
p672
F0.014285714285714285
sS'nine'
p673
F0.05
sS'one'
p674
F0.18571428571428572
sS'eight'
p675
F0.02857142857142857
sS'<unk>'
p676
F0.05
ssS'PP_IN'
p677
(dp678
S'from'
p679
F1.0
ssS'SBAR_S_VP'
p680
(dp681
S'TO VP_VB'
p682
F1.0
ssS'SQ'
p683
(dp684
S'INTJ_UH SQ*'
p685
F0.1111111111111111
sS'VBZ SQ*'
p686
F0.1111111111111111
sS'VBP SQ*'
p687
F0.1111111111111111
sS'VBP NP'
p688
F0.1111111111111111
sS'VBP NP_NP_EX'
p689
F0.1111111111111111
sS'MD SQ*'
p690
F0.1111111111111111
sS'VBZ NP_PRP'
p691
F0.1111111111111111
sS'VBZ NP'
p692
F0.1111111111111111
sS'X SQ*'
p693
F0.1111111111111111
ssS'JJS'
p694
(dp695
S'<unk>'
p696
F0.125
sS'Cheapest'
p697
F0.40625
sS'cheapest'
p698
F0.09375
sS'least'
p699
F0.0625
sS'earliest'
p700
F0.09375
sS'Shortest'
p701
F0.09375
sS'latest'
p702
F0.125
ssS'JJR'
p703
(dp704
S'<unk>'
p705
F0.25
sS'less'
p706
F0.75
ssS'NX_NN'
p707
(dp708
S'aircraft'
p709
F1.0
ssS'NX*'
p710
(dp711
S'NX_NN CC'
p712
F1.0
ssS'QP*'
p713
(dp714
S'CD CD'
p715
F0.16666666666666666
sS'RB JJR'
p716
F0.16666666666666666
sS'QP* CD'
p717
F0.16666666666666666
sS'RBR IN'
p718
F0.16666666666666666
sS'IN JJS'
p719
F0.16666666666666666
sS'QP* IN'
p720
F0.16666666666666666
ssS'INTJ_UH'
p721
(dp722
S'Okay'
p723
F0.16666666666666666
sS'oh'
p724
F0.08333333333333333
sS'Please'
p725
F0.25
sS'please'
p726
F0.16666666666666666
sS'Thanks'
p727
F0.16666666666666666
sS'<unk>'
p728
F0.16666666666666666
ssS'NP_NNPS'
p729
(dp730
S'Wednesdays'
p731
F1.0
ssS'NP_PRP'
p732
(dp733
S'I'
p734
F0.3235294117647059
sS'me'
p735
F0.6029411764705882
sS'you'
p736
F0.04411764705882353
sS'it'
p737
F0.014705882352941176
sS'<unk>'
p738
F0.014705882352941176
ssS'ADJP'
p739
(dp740
S'JJ PP'
p741
F0.25
sS'RBS JJ'
p742
F0.25
sS'JJR PP'
p743
F0.25
sS'ADJP* PP'
p744
F0.25
ssS'TOP'
p745
(dp746
S'FRAG_ADJP_JJS PUNC'
p747
F0.05263157894736842
sS'S PUNC'
p748
F0.05263157894736842
sS'FRAG_NP_NNP PUNC'
p749
F0.05263157894736842
sS'FRAG_WHNP PUNC'
p750
F0.05263157894736842
sS'FRAG_NP PUNC'
p751
F0.05263157894736842
sS'ADJP_JJ PUNC'
p752
F0.05263157894736842
sS'X_SBARQ PUNC'
p753
F0.05263157894736842
sS'SBARQ PUNC'
p754
F0.05263157894736842
sS'FRAG_ADJP_JJ PUNC'
p755
F0.05263157894736842
sS'SQ PUNC'
p756
F0.05263157894736842
sS'FRAG_PP PUNC'
p757
F0.05263157894736842
sS'FRAG_NP_NN PUNC'
p758
F0.05263157894736842
sS'FRAG PUNC'
p759
F0.05263157894736842
sS'INTJ_UH PUNC'
p760
F0.05263157894736842
sS'NP PUNC'
p761
F0.05263157894736842
sS'X_S_VP PUNC'
p762
F0.05263157894736842
sS'SBAR PUNC'
p763
F0.05263157894736842
sS'S_VP PUNC'
p764
F0.05263157894736842
sS'FRAG_VP PUNC'
p765
F0.05263157894736842
ssS'DT'
p766
(dp767
S'a'
p768
F0.15656565656565657
sS'all'
p769
F0.050505050505050504
sS'that'
p770
F0.020202020202020204
sS'this'
p771
F0.025252525252525252
sS'All'
p772
F0.020202020202020204
sS'any'
p773
F0.005050505050505051
sS'these'
p774
F0.05555555555555555
sS'Any'
p775
F0.005050505050505051
sS'the'
p776
F0.6262626262626263
sS'The'
p777
F0.020202020202020204
sS'those'
p778
F0.005050505050505051
sS'<unk>'
p779
F0.010101010101010102
ssS'ADJP_JJR'
p780
(dp781
S'better'
p782
F1.0
ssS'POS'
p783
(dp784
S"'s"
p785
F1.0
ssS'TO'
p786
(dp787
S'to'
p788
F1.0
ssS'WHNP_WDT'
p789
(dp790
S'Which'
p791
F0.5714285714285714
sS'that'
p792
F0.42857142857142855
ssS'VP_VB'
p793
(dp794
S'leave'
p795
F0.16666666666666666
sS'cost'
p796
F0.5
sS'stop'
p797
F0.16666666666666666
sS'<unk>'
p798
F0.16666666666666666
ssS'VB'
p799
(dp800
S'fly'
p801
F0.030120481927710843
sS'be'
p802
F0.012048192771084338
sS'stop'
p803
F0.006024096385542169
sS'return'
p804
F0.012048192771084338
sS'like'
p805
F0.10240963855421686
sS'Show'
p806
F0.5180722891566265
sS'List'
p807
F0.018072289156626505
sS'travel'
p808
F0.018072289156626505
sS'show'
p809
F0.018072289156626505
sS'serve'
p810
F0.04216867469879518
sS'make'
p811
F0.006024096385542169
sS'leave'
p812
F0.024096385542168676
sS'list'
p813
F0.024096385542168676
sS'Explain'
p814
F0.018072289156626505
sS'have'
p815
F0.030120481927710843
sS'visit'
p816
F0.012048192771084338
sS'go'
p817
F0.012048192771084338
sS'arrive'
p818
F0.024096385542168676
sS'find'
p819
F0.012048192771084338
sS'Thank'
p820
F0.012048192771084338
sS'<unk>'
p821
F0.04819277108433735
ssS'ADJP*'
p822
(dp823
S'RB RB'
p824
F1.0
ssS'PP*'
p825
(dp826
S'PP* IN'
p827
F0.25
sS'NP IN'
p828
F0.25
sS'IN CC'
p829
F0.25
sS'PP CC'
p830
F0.25
ssS'RBS'
p831
(dp832
S'least'
p833
F1.0
ssS'RBR'
p834
(dp835
S'less'
p836
F1.0
ssS'VP'
p837
(dp838
S'VP* ADJP'
p839
F0.037037037037037035
sS'VBP S_VP'
p840
F0.037037037037037035
sS'VB PP'
p841
F0.037037037037037035
sS'VP* VP'
p842
F0.037037037037037035
sS'VP* ADVP'
p843
F0.037037037037037035
sS'VBZ PP'
p844
F0.037037037037037035
sS'VP* NP_NN'
p845
F0.037037037037037035
sS'VB NP'
p846
F0.037037037037037035
sS'VP* NP'
p847
F0.037037037037037035
sS'VB NP_NNS'
p848
F0.037037037037037035
sS'VBP NP'
p849
F0.037037037037037035
sS'VB NP_NNP'
p850
F0.037037037037037035
sS'VB NP_NN'
p851
F0.037037037037037035
sS'VP* PP'
p852
F0.037037037037037035
sS'VBD NP'
p853
F0.037037037037037035
sS'VBP ADJP'
p854
F0.037037037037037035
sS'VBN PP'
p855
F0.037037037037037035
sS'VBG NP_NNP'
p856
F0.037037037037037035
sS'VBZ NP'
p857
F0.037037037037037035
sS'VB S_VP'
p858
F0.037037037037037035
sS'TO VP'
p859
F0.037037037037037035
sS'VBG NP'
p860
F0.037037037037037035
sS'MD VP'
p861
F0.037037037037037035
sS'VBP PP'
p862
F0.037037037037037035
sS'VB S'
p863
F0.037037037037037035
sS'VBG PP'
p864
F0.037037037037037035
sS'VBP FRAG'
p865
F0.037037037037037035
ssS'X_S_VP'
p866
(dp867
S'VP* NP'
p868
F1.0
ssS'IN'
p869
(dp870
S'on'
p871
F0.14315352697095435
sS'about'
p872
F0.012448132780082987
sS'via'
p873
F0.006224066390041493
sS'from'
p874
F0.45228215767634855
sS'around'
p875
F0.012448132780082987
sS'for'
p876
F0.01037344398340249
sS'On'
p877
F0.008298755186721992
sS'of'
p878
F0.08091286307053942
sS'after'
p879
F0.03319502074688797
sS'With'
p880
F0.006224066390041493
sS'than'
p881
F0.014522821576763486
sS'as'
p882
F0.002074688796680498
sS'at'
p883
F0.02074688796680498
sS'in'
p884
F0.1016597510373444
sS'between'
p885
F0.026970954356846474
sS'From'
p886
F0.01037344398340249
sS'before'
p887
F0.026970954356846474
sS'with'
p888
F0.012448132780082987
sS'by'
p889
F0.006224066390041493
sS'<unk>'
p890
F0.012448132780082987
ssS'VP*'
p891
(dp892
S'VP* X_TO'
p893
F0.0625
sS'VP* NP'
p894
F0.0625
sS'VB PRT_RP'
p895
F0.0625
sS'VBG NP_NNP'
p896
F0.0625
sS'VB PP'
p897
F0.0625
sS'VBP NP_NNP'
p898
F0.0625
sS'VB NP_PRP'
p899
F0.0625
sS'VBP RB'
p900
F0.0625
sS'VB ADVP_RB'
p901
F0.0625
sS'VP* PP'
p902
F0.0625
sS'VBP PP'
p903
F0.0625
sS'VBG NP'
p904
F0.0625
sS'VBZ PP'
p905
F0.0625
sS'VBG PP'
p906
F0.0625
sS'VB ADVP'
p907
F0.0625
sS'VP CC'
p908
F0.0625
ssS'QP'
p909
(dp910
S'QP* CD'
p911
F0.3333333333333333
sS'RB CD'
p912
F0.3333333333333333
sS'CC JJR'
p913
F0.3333333333333333
ssS'FRAG*'
p914
(dp915
S'NP_NNP PP'
p916
F0.14285714285714285
sS'PP PP'
p917
F0.14285714285714285
sS'FRAG* PP'
p918
F0.14285714285714285
sS'NP_NN PP'
p919
F0.14285714285714285
sS'WHNP PP'
p920
F0.14285714285714285
sS'FRAG* NP'
p921
F0.14285714285714285
sS'NP NP'
p922
F0.14285714285714285
ssS'FRAG_PP'
p923
(dp924
S'IN NP_NNP'
p925
F0.5
sS'IN NP'
p926
F0.5
ssS'WHADJP'
p927
(dp928
S'WRB JJ'
p929
F1.0
ssS'WHNP'
p930
(dp931
S'WRB RB'
p932
F0.14285714285714285
sS'WHNP_WDT PP'
p933
F0.14285714285714285
sS'WDT NN'
p934
F0.14285714285714285
sS'WHADJP NNS'
p935
F0.14285714285714285
sS'WHNP PP'
p936
F0.14285714285714285
sS'WHNP ADJP_JJ'
p937
F0.14285714285714285
sS'WDT NNS'
p938
F0.14285714285714285
ss.