(lp0
S'NP_NP_EX'
p1
aS'SBAR'
p2
aS'NP*'
p3
aS'ADVP_RB'
p4
aS'SQ*'
p5
aS'WDT'
p6
aS'FRAG_NP_NN'
p7
aS'JJ'
p8
aS'WP'
p9
aS'X_JJ'
p10
aS'PUNC'
p11
aS'RB'
p12
aS'NNS'
p13
aS'NNP'
p14
aS'FRAG'
p15
aS'FRAG_WHNP'
p16
aS'ADVP_RBS'
p17
aS'WRB'
p18
aS'X'
p19
aS'S_VP_VBG'
p20
aS'NP_NNP'
p21
aS'NP_NNS'
p22
aS'X_SBARQ'
p23
aS'WHADVP_WRB'
p24
aS'SBARQ*'
p25
aS'SYM'
p26
aS'WHNP_WP'
p27
aS'NP_NN'
p28
aS'PP'
p29
aS'WHNP*'
p30
aS'FRAG_NP_NNP'
p31
aS'X_TO'
p32
aS'VP_VBN'
p33
aS'FRAG_ADJP_JJ'
p34
aS'VP_VBG'
p35
aS'WHNP_WHNP'
p36
aS'S'
p37
aS'VP_VBZ'
p38
aS'ADVP'
p39
aS'MD'
p40
aS'ADJP_JJ'
p41
aS'SBARQ'
p42
aS'S_VP'
p43
aS'SQ_VP'
p44
aS'VBG'
p45
aS'VBD'
p46
aS'VBN'
p47
aS'S*'
p48
aS'VBP'
p49
aS'NP_DT'
p50
aS'VBZ'
p51
aS'FRAG_VP'
p52
aS'NN'
p53
aS'FRAG_ADJP_JJS'
p54
aS'NX'
p55
aS'NP_CD'
p56
aS'FRAG_NP'
p57
aS'NP'
p58
aS'CC'
p59
aS'PDT'
p60
aS'PRT_RP'
p61
aS'CD'
p62
aS'PP_IN'
p63
aS'SBAR_S_VP'
p64
aS'SQ'
p65
aS'JJS'
p66
aS'JJR'
p67
aS'NX_NN'
p68
aS'NX*'
p69
aS'QP*'
p70
aS'INTJ_UH'
p71
aS'NP_NNPS'
p72
aS'NP_PRP'
p73
aS'ADJP'
p74
aS'TOP'
p75
aS'DT'
p76
aS'ADJP_JJR'
p77
aS'POS'
p78
aS'TO'
p79
aS'WHNP_WDT'
p80
aS'VP_VB'
p81
aS'VB'
p82
aS'ADJP*'
p83
aS'PP*'
p84
aS'RBS'
p85
aS'RBR'
p86
aS'VP'
p87
aS'X_S_VP'
p88
aS'IN'
p89
aS'VP*'
p90
aS'QP'
p91
aS'FRAG*'
p92
aS'FRAG_PP'
p93
aS'WHADJP'
p94
aS'WHNP'
p95
a.